; Function Attrs: nounwind uwtable
define internal noundef i32 @H5MF__sect_large_merge(ptr nocapture noundef readonly %0, ptr noundef %1, ptr nocapture readnone %2) #0 {
  %4 = getelementptr inbounds i8, ptr %1, i64 8
  %5 = load i64, ptr %4, align 8
  %6 = load ptr, ptr %0, align 8
  %7 = getelementptr inbounds i8, ptr %6, i64 8
  %8 = load i64, ptr %7, align 8
  %9 = add i64 %8, %5
  store i64 %9, ptr %7, align 8
  %10 = tail call ptr @H5FL_reg_free(ptr noundef nonnull @H5_H5MF_free_section_t_reg_free_list, ptr noundef %1) #5
  ret i32 0
}